target datalayout = "e-m:e-p270:32:32-p271:32:32-p272:64:64-i64:64-i128:128-f80:128-n8:16:32:64-S128"
target triple = "x86_64-pc-linux-gnu"

%struct.SDL_Sensor = type { i32, ptr, i32, i32, [16 x float], ptr, ptr, i32, i32, ptr }
%union.SDL_Event = type { %struct.SDL_MouseWheelEvent, [72 x i8] }
%struct.SDL_MouseWheelEvent = type { i32, i32, i64, i32, i32, float, float, i32, float, float, i32, i32 }
%struct.SDL_CommonEvent = type { i32, i32, i64 }
%struct.SDL_SensorEvent = type { i32, i32, i64, i32, [6 x float], i64 }

; Function Attrs: nounwind uwtable
define hidden void @SDL_AssertSensorsLocked() #0 {
  br label %1

1:                                                ; preds = %0
  br label %2

2:                                                ; preds = %1
  ret void
}

; Function Attrs: nounwind uwtable
define hidden void @SDL_SendSensorUpdate(i64 noundef %0, ptr noundef %1, i64 noundef %2, ptr noundef %3, i32 noundef %4) #0 {
  %6 = alloca i64, align 8
  %7 = alloca ptr, align 8
  %8 = alloca i64, align 8
  %9 = alloca ptr, align 8
  %10 = alloca i32, align 4
  %11 = alloca %union.SDL_Event, align 8
  store i64 %0, ptr %6, align 8
  store ptr %1, ptr %7, align 8
  store i64 %2, ptr %8, align 8
  store ptr %3, ptr %9, align 8
  store i32 %4, ptr %10, align 4
  call void @SDL_AssertSensorsLocked()
  %12 = load i32, ptr %10, align 4
  %13 = sext i32 %12 to i64
  %14 = icmp ult i64 %13, 16
  br i1 %14, label %15, label %18

15:                                               ; preds = %5
  %16 = load i32, ptr %10, align 4
  %17 = sext i32 %16 to i64
  br label %19

18:                                               ; preds = %5
  br label %19

19:                                               ; preds = %18, %15
  %20 = phi i64 [ %17, %15 ], [ 16, %18 ]
  %21 = trunc i64 %20 to i32
  store i32 %21, ptr %10, align 4
  %22 = load ptr, ptr %7, align 8
  %23 = getelementptr inbounds nuw %struct.SDL_Sensor, ptr %22, i32 0, i32 4
  %24 = getelementptr inbounds [16 x float], ptr %23, i64 0, i64 0
  %25 = load ptr, ptr %9, align 8
  %26 = load i32, ptr %10, align 4
  %27 = sext i32 %26 to i64
  %28 = mul i64 %27, 4
  call void @llvm.memcpy.p0.p0.i64(ptr align 8 %24, ptr align 4 %25, i64 %28, i1 false)
  %29 = call zeroext i1 @SDL_EventEnabled_REAL(i32 noundef 4608)
  br i1 %29, label %30, label %58

30:                                               ; preds = %19
  call void @llvm.lifetime.start.p0(i64 128, ptr %11) #6
  store i32 4608, ptr %11, align 8
  %31 = load i64, ptr %6, align 8
  %32 = getelementptr inbounds nuw %struct.SDL_CommonEvent, ptr %11, i32 0, i32 2
  store i64 %31, ptr %32, align 8
  %33 = load ptr, ptr %7, align 8
  %34 = getelementptr inbounds nuw %struct.SDL_Sensor, ptr %33, i32 0, i32 0
  %35 = load i32, ptr %34, align 8
  %36 = getelementptr inbounds nuw %struct.SDL_SensorEvent, ptr %11, i32 0, i32 3
  store i32 %35, ptr %36, align 8
  %37 = load i32, ptr %10, align 4
  %38 = sext i32 %37 to i64
  %39 = icmp ult i64 %38, 6
  br i1 %39, label %40, label %43

40:                                               ; preds = %30
  %41 = load i32, ptr %10, align 4
  %42 = sext i32 %41 to i64
  br label %44

43:                                               ; preds = %30
  br label %44

44:                                               ; preds = %43, %40
  %45 = phi i64 [ %42, %40 ], [ 6, %43 ]
  %46 = trunc i64 %45 to i32
  store i32 %46, ptr %10, align 4
  %47 = getelementptr inbounds nuw %struct.SDL_SensorEvent, ptr %11, i32 0, i32 4
  %48 = getelementptr inbounds [6 x float], ptr %47, i64 0, i64 0
  call void @llvm.memset.p0.i64(ptr align 4 %48, i8 0, i64 24, i1 false)
  %49 = getelementptr inbounds nuw %struct.SDL_SensorEvent, ptr %11, i32 0, i32 4
  %50 = getelementptr inbounds [6 x float], ptr %49, i64 0, i64 0
  %51 = load ptr, ptr %9, align 8
  %52 = load i32, ptr %10, align 4
  %53 = sext i32 %52 to i64
  %54 = mul i64 %53, 4
  call void @llvm.memcpy.p0.p0.i64(ptr align 4 %50, ptr align 4 %51, i64 %54, i1 false)
  %55 = load i64, ptr %8, align 8
  %56 = getelementptr inbounds nuw %struct.SDL_SensorEvent, ptr %11, i32 0, i32 5
  store i64 %55, ptr %56, align 8
  %57 = call zeroext i1 @SDL_PushEvent_REAL(ptr noundef %11)
  call void @llvm.lifetime.end.p0(i64 128, ptr %11) #6
  br label %58

58:                                               ; preds = %44, %19
  %59 = load i64, ptr %6, align 8
  %60 = load ptr, ptr %7, align 8
  %61 = getelementptr inbounds nuw %struct.SDL_Sensor, ptr %60, i32 0, i32 0
  %62 = load i32, ptr %61, align 8
  %63 = load i64, ptr %8, align 8
  %64 = load ptr, ptr %9, align 8
  %65 = load i32, ptr %10, align 4
  call void @SDL_GamepadSensorWatcher(i64 noundef %59, i32 noundef %62, i64 noundef %63, ptr noundef %64, i32 noundef %65)
  ret void
}