; Function Attrs: nounwind uwtable
define hidden void @SDL_SendSensorUpdate(i64 noundef %0, ptr noundef captures(none) %1, i64 noundef %2, ptr noundef %3, i32 noundef %4) local_unnamed_addr #1 {
  %6 = alloca %union.SDL_Event, align 8
  %7 = tail call i32 @llvm.umin.i32(i32 %4, i32 16)
  %8 = getelementptr inbounds nuw i8, ptr %1, i64 24
  %9 = zext nneg i32 %7 to i64
  %10 = shl nuw nsw i64 %9, 2
  tail call void @llvm.memcpy.p0.p0.i64(ptr nonnull align 8 %8, ptr align 4 %3, i64 %10, i1 false)
  %11 = tail call zeroext i1 @SDL_EventEnabled_REAL(i32 noundef 4608) #9
  br i1 %11, label %12, label %22

12:                                               ; preds = %5
  call void @llvm.lifetime.start.p0(i64 128, ptr nonnull %6) #9
  store i32 4608, ptr %6, align 8
  %13 = getelementptr inbounds nuw i8, ptr %6, i64 8
  store i64 %0, ptr %13, align 8
  %14 = load i32, ptr %1, align 8
  %15 = getelementptr inbounds nuw i8, ptr %6, i64 16
  store i32 %14, ptr %15, align 8
  %16 = tail call i64 @llvm.umin.i64(i64 %9, i64 6)
  %17 = trunc nuw nsw i64 %16 to i32
  %18 = getelementptr inbounds nuw i8, ptr %6, i64 20
  call void @llvm.memset.p0.i64(ptr noundef nonnull align 4 dereferenceable(24) %18, i8 0, i64 24, i1 false)
  %19 = shl nuw nsw i64 %16, 2
  call void @llvm.memcpy.p0.p0.i64(ptr nonnull align 4 %18, ptr align 4 %3, i64 %19, i1 false)
  %20 = getelementptr inbounds nuw i8, ptr %6, i64 48
  store i64 %2, ptr %20, align 8
  %21 = call zeroext i1 @SDL_PushEvent_REAL(ptr noundef nonnull %6) #9
  call void @llvm.lifetime.end.p0(i64 128, ptr nonnull %6) #9
  br label %22

22:                                               ; preds = %12, %5
  %.0 = phi i32 [ %17, %12 ], [ %7, %5 ]
  %23 = load i32, ptr %1, align 8
  call void @SDL_GamepadSensorWatcher(i64 noundef %0, i32 noundef %23, i64 noundef %2, ptr noundef %3, i32 noundef %.0) #9
  ret void
}